target datalayout = "e-m:e-p270:32:32-p271:32:32-p272:64:64-i64:64-i128:128-f80:128-n8:16:32:64-S128"
target triple = "x86_64-pc-linux-gnu"

%"class.absl::Time" = type { %"class.absl::Duration" }
%"class.absl::Duration" = type { %"class.absl::Duration::HiRep", i32 }
%"class.absl::Duration::HiRep" = type { i32, i32 }
%"class.absl::synchronization_internal::KernelTimeout" = type { i64 }

; Function Attrs: mustprogress nounwind uwtable
define linkonce_odr dso_local noundef nonnull align 4 dereferenceable(8) ptr @_ZN4absl8Duration5HiRepaSEl(ptr noundef nonnull align 4 dereferenceable(8) %0, i64 noundef %1) #3 comdat align 2 {
  %3 = alloca ptr, align 8
  %4 = alloca i64, align 8
  %5 = alloca i64, align 8
  store ptr %0, ptr %3, align 8, !tbaa !39
  store i64 %1, ptr %4, align 8, !tbaa !12
  %6 = load ptr, ptr %3, align 8
  call void @llvm.lifetime.start.p0(i64 8, ptr %5) #12
  %7 = load i64, ptr %4, align 8, !tbaa !12
  store i64 %7, ptr %5, align 8, !tbaa !12
  %8 = load i64, ptr %5, align 8, !tbaa !12
  %9 = lshr i64 %8, 32
  %10 = trunc i64 %9 to i32
  %11 = getelementptr inbounds nuw %"class.absl::Duration::HiRep", ptr %6, i32 0, i32 1
  store i32 %10, ptr %11, align 4, !tbaa !42
  %12 = load i64, ptr %5, align 8, !tbaa !12
  %13 = trunc i64 %12 to i32
  %14 = getelementptr inbounds nuw %"class.absl::Duration::HiRep", ptr %6, i32 0, i32 0
  store i32 %13, ptr %14, align 4, !tbaa !41
  call void @llvm.lifetime.end.p0(i64 8, ptr %5) #12
  ret ptr %6
}

; Function Attrs: mustprogress nounwind uwtable
define linkonce_odr dso_local noundef i64 @_ZNK4absl8Duration5HiRep3GetEv(ptr noundef nonnull align 4 dereferenceable(8) %0) #3 comdat align 2 {
  %2 = alloca ptr, align 8
  %3 = alloca i64, align 8
  store ptr %0, ptr %2, align 8, !tbaa !39
  %4 = load ptr, ptr %2, align 8
  call void @llvm.lifetime.start.p0(i64 8, ptr %3) #12
  %5 = getelementptr inbounds nuw %"class.absl::Duration::HiRep", ptr %4, i32 0, i32 1
  %6 = load i32, ptr %5, align 4, !tbaa !42
  %7 = zext i32 %6 to i64
  %8 = shl i64 %7, 32
  %9 = getelementptr inbounds nuw %"class.absl::Duration::HiRep", ptr %4, i32 0, i32 0
  %10 = load i32, ptr %9, align 4, !tbaa !41
  %11 = zext i32 %10 to i64
  %12 = or i64 %8, %11
  store i64 %12, ptr %3, align 8, !tbaa !12
  %13 = load i64, ptr %3, align 8, !tbaa !12
  call void @llvm.lifetime.end.p0(i64 8, ptr %3) #12
  ret i64 %13
}

; Function Attrs: mustprogress uwtable
define linkonce_odr dso_local void @_ZN4absl8Duration5HiRepC2El(ptr noundef nonnull align 4 dereferenceable(8) %0, i64 noundef %1) unnamed_addr #0 comdat align 2 {
  %3 = alloca ptr, align 8
  %4 = alloca i64, align 8
  store ptr %0, ptr %3, align 8, !tbaa !39
  store i64 %1, ptr %4, align 8, !tbaa !12
  %5 = load ptr, ptr %3, align 8
  %6 = getelementptr inbounds nuw %"class.absl::Duration::HiRep", ptr %5, i32 0, i32 0
  store i32 0, ptr %6, align 4, !tbaa !41
  %7 = getelementptr inbounds nuw %"class.absl::Duration::HiRep", ptr %5, i32 0, i32 1
  store i32 0, ptr %7, align 4, !tbaa !42
  %8 = load i64, ptr %4, align 8, !tbaa !12
  %9 = call noundef nonnull align 4 dereferenceable(8) ptr @_ZN4absl8Duration5HiRepaSEl(ptr noundef nonnull align 4 dereferenceable(8) %5, i64 noundef %8)
  ret void
}

; Function Attrs: mustprogress nounwind willreturn memory(none) uwtable
define linkonce_odr dso_local noundef i32 @_ZN4absl13time_internal8GetRepLoENS_8DurationE(i64 %0, i32 %1) #5 comdat {
  %3 = alloca %"class.absl::Duration", align 4
  %4 = alloca { i64, i32 }, align 4
  %5 = getelementptr inbounds nuw { i64, i32 }, ptr %4, i32 0, i32 0
  store i64 %0, ptr %5, align 4
  %6 = getelementptr inbounds nuw { i64, i32 }, ptr %4, i32 0, i32 1
  store i32 %1, ptr %6, align 4
  call void @llvm.memcpy.p0.p0.i64(ptr align 4 %3, ptr align 4 %4, i64 12, i1 false)
  %7 = getelementptr inbounds nuw %"class.absl::Duration", ptr %3, i32 0, i32 1
  %8 = load i32, ptr %7, align 4, !tbaa !36
  ret i32 %8
}

; Function Attrs: mustprogress nounwind willreturn memory(none) uwtable
define linkonce_odr dso_local noundef i64 @_ZN4absl13time_internal8GetRepHiENS_8DurationE(i64 %0, i32 %1) #5 comdat {
  %3 = alloca %"class.absl::Duration", align 4
  %4 = alloca { i64, i32 }, align 4
  %5 = getelementptr inbounds nuw { i64, i32 }, ptr %4, i32 0, i32 0
  store i64 %0, ptr %5, align 4
  %6 = getelementptr inbounds nuw { i64, i32 }, ptr %4, i32 0, i32 1
  store i32 %1, ptr %6, align 4
  call void @llvm.memcpy.p0.p0.i64(ptr align 4 %3, ptr align 4 %4, i64 12, i1 false)
  %7 = getelementptr inbounds nuw %"class.absl::Duration", ptr %3, i32 0, i32 0
  %8 = call noundef i64 @_ZNK4absl8Duration5HiRep3GetEv(ptr noundef nonnull align 4 dereferenceable(8) %7)
  ret i64 %8
}

; Function Attrs: mustprogress uwtable
define linkonce_odr dso_local void @_ZN4absl8DurationC2Elj(ptr noundef nonnull align 4 dereferenceable(12) %0, i64 noundef %1, i32 noundef %2) unnamed_addr #0 comdat align 2 {
  %4 = alloca ptr, align 8
  %5 = alloca i64, align 8
  %6 = alloca i32, align 4
  store ptr %0, ptr %4, align 8, !tbaa !34
  store i64 %1, ptr %5, align 8, !tbaa !12
  store i32 %2, ptr %6, align 4, !tbaa !19
  %7 = load ptr, ptr %4, align 8
  %8 = getelementptr inbounds nuw %"class.absl::Duration", ptr %7, i32 0, i32 0
  %9 = load i64, ptr %5, align 8, !tbaa !12
  call void @_ZN4absl8Duration5HiRepC2El(ptr noundef nonnull align 4 dereferenceable(8) %8, i64 noundef %9)
  %10 = getelementptr inbounds nuw %"class.absl::Duration", ptr %7, i32 0, i32 1
  %11 = load i32, ptr %6, align 4, !tbaa !19
  store i32 %11, ptr %10, align 4, !tbaa !36
  ret void
}

; Function Attrs: mustprogress nounwind willreturn memory(none) uwtable
define linkonce_odr dso_local noundef zeroext i1 @_ZN4absleqENS_8DurationES0_(i64 %0, i32 %1, i64 %2, i32 %3) #5 comdat {
  %5 = alloca %"class.absl::Duration", align 4
  %6 = alloca { i64, i32 }, align 4
  %7 = alloca %"class.absl::Duration", align 4
  %8 = alloca { i64, i32 }, align 4
  %9 = alloca %"class.absl::Duration", align 4
  %10 = alloca { i64, i32 }, align 4
  %11 = alloca %"class.absl::Duration", align 4
  %12 = alloca { i64, i32 }, align 4
  %13 = alloca %"class.absl::Duration", align 4
  %14 = alloca { i64, i32 }, align 4
  %15 = alloca %"class.absl::Duration", align 4
  %16 = alloca { i64, i32 }, align 4
  %17 = getelementptr inbounds nuw { i64, i32 }, ptr %6, i32 0, i32 0
  store i64 %0, ptr %17, align 4
  %18 = getelementptr inbounds nuw { i64, i32 }, ptr %6, i32 0, i32 1
  store i32 %1, ptr %18, align 4
  call void @llvm.memcpy.p0.p0.i64(ptr align 4 %5, ptr align 4 %6, i64 12, i1 false)
  %19 = getelementptr inbounds nuw { i64, i32 }, ptr %8, i32 0, i32 0
  store i64 %2, ptr %19, align 4
  %20 = getelementptr inbounds nuw { i64, i32 }, ptr %8, i32 0, i32 1
  store i32 %3, ptr %20, align 4
  call void @llvm.memcpy.p0.p0.i64(ptr align 4 %7, ptr align 4 %8, i64 12, i1 false)
  call void @llvm.memcpy.p0.p0.i64(ptr align 4 %9, ptr align 4 %5, i64 12, i1 false), !tbaa.struct !18
  call void @llvm.memcpy.p0.p0.i64(ptr align 4 %10, ptr align 4 %9, i64 12, i1 false)
  %21 = getelementptr inbounds nuw { i64, i32 }, ptr %10, i32 0, i32 0
  %22 = load i64, ptr %21, align 4
  %23 = getelementptr inbounds nuw { i64, i32 }, ptr %10, i32 0, i32 1
  %24 = load i32, ptr %23, align 4
  %25 = call noundef i64 @_ZN4absl13time_internal8GetRepHiENS_8DurationE(i64 %22, i32 %24) #13
  call void @llvm.memcpy.p0.p0.i64(ptr align 4 %11, ptr align 4 %7, i64 12, i1 false), !tbaa.struct !18
  call void @llvm.memcpy.p0.p0.i64(ptr align 4 %12, ptr align 4 %11, i64 12, i1 false)
  %26 = getelementptr inbounds nuw { i64, i32 }, ptr %12, i32 0, i32 0
  %27 = load i64, ptr %26, align 4
  %28 = getelementptr inbounds nuw { i64, i32 }, ptr %12, i32 0, i32 1
  %29 = load i32, ptr %28, align 4
  %30 = call noundef i64 @_ZN4absl13time_internal8GetRepHiENS_8DurationE(i64 %27, i32 %29) #13
  %31 = icmp eq i64 %25, %30
  br i1 %31, label %32, label %44

32:                                               ; preds = %4
  call void @llvm.memcpy.p0.p0.i64(ptr align 4 %13, ptr align 4 %5, i64 12, i1 false), !tbaa.struct !18
  call void @llvm.memcpy.p0.p0.i64(ptr align 4 %14, ptr align 4 %13, i64 12, i1 false)
  %33 = getelementptr inbounds nuw { i64, i32 }, ptr %14, i32 0, i32 0
  %34 = load i64, ptr %33, align 4
  %35 = getelementptr inbounds nuw { i64, i32 }, ptr %14, i32 0, i32 1
  %36 = load i32, ptr %35, align 4
  %37 = call noundef i32 @_ZN4absl13time_internal8GetRepLoENS_8DurationE(i64 %34, i32 %36) #13
  call void @llvm.memcpy.p0.p0.i64(ptr align 4 %15, ptr align 4 %7, i64 12, i1 false), !tbaa.struct !18
  call void @llvm.memcpy.p0.p0.i64(ptr align 4 %16, ptr align 4 %15, i64 12, i1 false)
  %38 = getelementptr inbounds nuw { i64, i32 }, ptr %16, i32 0, i32 0
  %39 = load i64, ptr %38, align 4
  %40 = getelementptr inbounds nuw { i64, i32 }, ptr %16, i32 0, i32 1
  %41 = load i32, ptr %40, align 4
  %42 = call noundef i32 @_ZN4absl13time_internal8GetRepLoENS_8DurationE(i64 %39, i32 %41) #13
  %43 = icmp eq i32 %37, %42
  br label %44

44:                                               ; preds = %32, %4
  %45 = phi i1 [ false, %4 ], [ %43, %32 ]
  ret i1 %45
}

; Function Attrs: mustprogress nounwind uwtable
define linkonce_odr dso_local void @_ZN4absl4TimeC2ENS_8DurationE(ptr noundef nonnull align 4 dereferenceable(12) %0, i64 %1, i32 %2) unnamed_addr #3 comdat align 2 {
  %4 = alloca %"class.absl::Duration", align 4
  %5 = alloca { i64, i32 }, align 4
  %6 = alloca ptr, align 8
  %7 = getelementptr inbounds nuw { i64, i32 }, ptr %5, i32 0, i32 0
  store i64 %1, ptr %7, align 4
  %8 = getelementptr inbounds nuw { i64, i32 }, ptr %5, i32 0, i32 1
  store i32 %2, ptr %8, align 4
  call void @llvm.memcpy.p0.p0.i64(ptr align 4 %4, ptr align 4 %5, i64 12, i1 false)
  store ptr %0, ptr %6, align 8, !tbaa !32
  %9 = load ptr, ptr %6, align 8
  %10 = getelementptr inbounds nuw %"class.absl::Time", ptr %9, i32 0, i32 0
  call void @llvm.memcpy.p0.p0.i64(ptr align 4 %10, ptr align 4 %4, i64 12, i1 false), !tbaa.struct !18
  ret void
}

; Function Attrs: mustprogress nounwind willreturn memory(none) uwtable
define linkonce_odr dso_local { i64, i32 } @_ZN4absl13time_internal12MakeDurationElj(i64 noundef %0, i32 noundef %1) #5 comdat {
  %3 = alloca %"class.absl::Duration", align 4
  %4 = alloca i64, align 8
  %5 = alloca i32, align 4
  %6 = alloca { i64, i32 }, align 8
  store i64 %0, ptr %4, align 8, !tbaa !12
  store i32 %1, ptr %5, align 4, !tbaa !19
  %7 = load i64, ptr %4, align 8, !tbaa !12
  %8 = load i32, ptr %5, align 4, !tbaa !19
  call void @_ZN4absl8DurationC2Elj(ptr noundef nonnull align 4 dereferenceable(12) %3, i64 noundef %7, i32 noundef %8)
  call void @llvm.memcpy.p0.p0.i64(ptr align 8 %6, ptr align 4 %3, i64 12, i1 false)
  %9 = load { i64, i32 }, ptr %6, align 8
  ret { i64, i32 } %9
}

; Function Attrs: mustprogress nounwind uwtable
define linkonce_odr dso_local noundef i64 @_ZNSt14numeric_limitsIlE3maxEv() #3 comdat align 2 {
  ret i64 9223372036854775807
}

; Function Attrs: mustprogress nounwind willreturn memory(none) uwtable
define linkonce_odr dso_local noundef zeroext i1 @_ZN4absleqENS_4TimeES0_(i64 %0, i32 %1, i64 %2, i32 %3) #5 comdat {
  %5 = alloca %"class.absl::Time", align 4
  %6 = alloca { i64, i32 }, align 4
  %7 = alloca %"class.absl::Time", align 4
  %8 = alloca { i64, i32 }, align 4
  %9 = alloca %"class.absl::Duration", align 4
  %10 = alloca %"class.absl::Duration", align 4
  %11 = alloca { i64, i32 }, align 4
  %12 = alloca { i64, i32 }, align 4
  %13 = getelementptr inbounds nuw { i64, i32 }, ptr %6, i32 0, i32 0
  store i64 %0, ptr %13, align 4
  %14 = getelementptr inbounds nuw { i64, i32 }, ptr %6, i32 0, i32 1
  store i32 %1, ptr %14, align 4
  call void @llvm.memcpy.p0.p0.i64(ptr align 4 %5, ptr align 4 %6, i64 12, i1 false)
  %15 = getelementptr inbounds nuw { i64, i32 }, ptr %8, i32 0, i32 0
  store i64 %2, ptr %15, align 4
  %16 = getelementptr inbounds nuw { i64, i32 }, ptr %8, i32 0, i32 1
  store i32 %3, ptr %16, align 4
  call void @llvm.memcpy.p0.p0.i64(ptr align 4 %7, ptr align 4 %8, i64 12, i1 false)
  %17 = getelementptr inbounds nuw %"class.absl::Time", ptr %5, i32 0, i32 0
  call void @llvm.memcpy.p0.p0.i64(ptr align 4 %9, ptr align 4 %17, i64 12, i1 false), !tbaa.struct !18
  %18 = getelementptr inbounds nuw %"class.absl::Time", ptr %7, i32 0, i32 0
  call void @llvm.memcpy.p0.p0.i64(ptr align 4 %10, ptr align 4 %18, i64 12, i1 false), !tbaa.struct !18
  call void @llvm.memcpy.p0.p0.i64(ptr align 4 %11, ptr align 4 %9, i64 12, i1 false)
  %19 = getelementptr inbounds nuw { i64, i32 }, ptr %11, i32 0, i32 0
  %20 = load i64, ptr %19, align 4
  %21 = getelementptr inbounds nuw { i64, i32 }, ptr %11, i32 0, i32 1
  %22 = load i32, ptr %21, align 4
  call void @llvm.memcpy.p0.p0.i64(ptr align 4 %12, ptr align 4 %10, i64 12, i1 false)
  %23 = getelementptr inbounds nuw { i64, i32 }, ptr %12, i32 0, i32 0
  %24 = load i64, ptr %23, align 4
  %25 = getelementptr inbounds nuw { i64, i32 }, ptr %12, i32 0, i32 1
  %26 = load i32, ptr %25, align 4
  %27 = call noundef zeroext i1 @_ZN4absleqENS_8DurationES0_(i64 %20, i32 %22, i64 %24, i32 %26) #13
  ret i1 %27
}

; Function Attrs: mustprogress nounwind willreturn memory(none) uwtable
define linkonce_odr dso_local { i64, i32 } @_ZN4absl14InfiniteFutureEv() #5 comdat {
  %1 = alloca %"class.absl::Time", align 4
  %2 = alloca %"class.absl::Duration", align 4
  %3 = alloca { i64, i32 }, align 8
  %4 = alloca { i64, i32 }, align 4
  %5 = alloca { i64, i32 }, align 8
  %6 = call noundef i64 @_ZNSt14numeric_limitsIlE3maxEv() #12
  %7 = call { i64, i32 } @_ZN4absl13time_internal12MakeDurationElj(i64 noundef %6, i32 noundef -1) #13
  store { i64, i32 } %7, ptr %3, align 8
  call void @llvm.memcpy.p0.p0.i64(ptr align 4 %2, ptr align 8 %3, i64 12, i1 false)
  call void @llvm.memcpy.p0.p0.i64(ptr align 4 %4, ptr align 4 %2, i64 12, i1 false)
  %8 = getelementptr inbounds nuw { i64, i32 }, ptr %4, i32 0, i32 0
  %9 = load i64, ptr %8, align 4
  %10 = getelementptr inbounds nuw { i64, i32 }, ptr %4, i32 0, i32 1
  %11 = load i32, ptr %10, align 4
  call void @_ZN4absl4TimeC2ENS_8DurationE(ptr noundef nonnull align 4 dereferenceable(12) %1, i64 %9, i32 %11)
  %12 = getelementptr inbounds nuw %"class.absl::Time", ptr %1, i32 0, i32 0
  call void @llvm.memcpy.p0.p0.i64(ptr align 8 %5, ptr align 4 %12, i64 12, i1 false)
  %13 = load { i64, i32 }, ptr %5, align 8
  ret { i64, i32 } %13
}

; Function Attrs: mustprogress nounwind uwtable
define dso_local void @_ZN4absl24synchronization_internal13KernelTimeoutC2ENS_4TimeE(ptr noundef nonnull align 8 dereferenceable(8) %0, i64 %1, i32 %2) unnamed_addr #3 align 2 {
  %4 = alloca %"class.absl::Time", align 4
  %5 = alloca { i64, i32 }, align 4
  %6 = alloca ptr, align 8
  %7 = alloca %"class.absl::Time", align 4
  %8 = alloca %"class.absl::Time", align 4
  %9 = alloca { i64, i32 }, align 8
  %10 = alloca { i64, i32 }, align 4
  %11 = alloca { i64, i32 }, align 4
  %12 = alloca i64, align 8
  %13 = alloca %"class.absl::Time", align 4
  %14 = alloca { i64, i32 }, align 4
  %15 = alloca i32, align 4
  %16 = getelementptr inbounds nuw { i64, i32 }, ptr %5, i32 0, i32 0
  store i64 %1, ptr %16, align 4
  %17 = getelementptr inbounds nuw { i64, i32 }, ptr %5, i32 0, i32 1
  store i32 %2, ptr %17, align 4
  call void @llvm.memcpy.p0.p0.i64(ptr align 4 %4, ptr align 4 %5, i64 12, i1 false)
  store ptr %0, ptr %6, align 8, !tbaa !16
  %18 = load ptr, ptr %6, align 8
  call void @llvm.memcpy.p0.p0.i64(ptr align 4 %7, ptr align 4 %4, i64 12, i1 false), !tbaa.struct !18
  %19 = call { i64, i32 } @_ZN4absl14InfiniteFutureEv() #13
  %20 = getelementptr inbounds nuw %"class.absl::Time", ptr %8, i32 0, i32 0
  store { i64, i32 } %19, ptr %9, align 8
  call void @llvm.memcpy.p0.p0.i64(ptr align 4 %20, ptr align 8 %9, i64 12, i1 false)
  call void @llvm.memcpy.p0.p0.i64(ptr align 4 %10, ptr align 4 %7, i64 12, i1 false)
  %21 = getelementptr inbounds nuw { i64, i32 }, ptr %10, i32 0, i32 0
  %22 = load i64, ptr %21, align 4
  %23 = getelementptr inbounds nuw { i64, i32 }, ptr %10, i32 0, i32 1
  %24 = load i32, ptr %23, align 4
  call void @llvm.memcpy.p0.p0.i64(ptr align 4 %11, ptr align 4 %8, i64 12, i1 false)
  %25 = getelementptr inbounds nuw { i64, i32 }, ptr %11, i32 0, i32 0
  %26 = load i64, ptr %25, align 4
  %27 = getelementptr inbounds nuw { i64, i32 }, ptr %11, i32 0, i32 1
  %28 = load i32, ptr %27, align 4
  %29 = call noundef zeroext i1 @_ZN4absleqENS_4TimeES0_(i64 %22, i32 %24, i64 %26, i32 %28) #13
  br i1 %29, label %30, label %32

30:                                               ; preds = %3
  %31 = getelementptr inbounds nuw %"class.absl::synchronization_internal::KernelTimeout", ptr %18, i32 0, i32 0
  store i64 -1, ptr %31, align 8, !tbaa !21
  br label %52

32:                                               ; preds = %3
  call void @llvm.lifetime.start.p0(i64 8, ptr %12) #12
  call void @llvm.memcpy.p0.p0.i64(ptr align 4 %13, ptr align 4 %4, i64 12, i1 false), !tbaa.struct !18
  call void @llvm.memcpy.p0.p0.i64(ptr align 4 %14, ptr align 4 %13, i64 12, i1 false)
  %33 = getelementptr inbounds nuw { i64, i32 }, ptr %14, i32 0, i32 0
  %34 = load i64, ptr %33, align 4
  %35 = getelementptr inbounds nuw { i64, i32 }, ptr %14, i32 0, i32 1
  %36 = load i32, ptr %35, align 4
  %37 = call noundef i64 @_ZN4absl11ToUnixNanosENS_4TimeE(i64 %34, i32 %36) #13
  store i64 %37, ptr %12, align 8, !tbaa !12
  %38 = load i64, ptr %12, align 8, !tbaa !12
  %39 = icmp slt i64 %38, 0
  br i1 %39, label %40, label %41

40:                                               ; preds = %32
  store i64 0, ptr %12, align 8, !tbaa !12
  br label %41

41:                                               ; preds = %40, %32
  %42 = load i64, ptr %12, align 8, !tbaa !12
  %43 = icmp sge i64 %42, 9223372036854775807
  br i1 %43, label %44, label %46

44:                                               ; preds = %41
  %45 = getelementptr inbounds nuw %"class.absl::synchronization_internal::KernelTimeout", ptr %18, i32 0, i32 0
  store i64 -1, ptr %45, align 8, !tbaa !21
  store i32 1, ptr %15, align 4
  br label %50

46:                                               ; preds = %41
  %47 = load i64, ptr %12, align 8, !tbaa !12
  %48 = shl i64 %47, 1
  %49 = getelementptr inbounds nuw %"class.absl::synchronization_internal::KernelTimeout", ptr %18, i32 0, i32 0
  store i64 %48, ptr %49, align 8, !tbaa !21
  store i32 0, ptr %15, align 4
  br label %50

50:                                               ; preds = %46, %44
  call void @llvm.lifetime.end.p0(i64 8, ptr %12) #12
  %51 = load i32, ptr %15, align 4
  switch i32 %51, label %53 [
    i32 0, label %52
    i32 1, label %52
  ]

52:                                               ; preds = %30, %50, %50
  ret void

53:                                               ; preds = %50
  unreachable
}