; Function Attrs: mustprogress nofree nosync nounwind willreturn memory(argmem: write) uwtable
define dso_local void @_ZN4absl24synchronization_internal13KernelTimeoutC2ENS_4TimeE(ptr noundef nonnull writeonly align 8 captures(none) dereferenceable(8) initializes((0, 8)) %0, i64 %1, i32 %2) unnamed_addr #3 align 2 {
  %4 = icmp eq i64 %1, 9223372036854775807
  %5 = icmp eq i32 %2, -1
  %spec.select.i.i = select i1 %4, i1 %5, i1 false
  br i1 %spec.select.i.i, label %10, label %6

6:                                                ; preds = %3
  %7 = tail call noundef i64 @_ZN4absl11ToUnixNanosENS_4TimeE(i64 %1, i32 %2) #9
  %8 = icmp eq i64 %7, 9223372036854775807
  %spec.store.select = tail call i64 @llvm.smax.i64(i64 %7, i64 0)
  %9 = shl nuw i64 %spec.store.select, 1
  %storemerge = select i1 %8, i64 -1, i64 %9
  br label %10

10:                                               ; preds = %3, %6
  %storemerge20 = phi i64 [ %storemerge, %6 ], [ -1, %3 ]
  store i64 %storemerge20, ptr %0, align 8, !tbaa !4
  ret void
}